; Function Attrs: nounwind uwtable
define range(i32 0, 2) i32 @tls1_clear(ptr noundef %0) local_unnamed_addr #2 {
  %2 = icmp eq ptr %0, null
  br i1 %2, label %.thread, label %3

3:                                                ; preds = %1
  %4 = load i32, ptr %0, align 8, !tbaa !19
  %5 = icmp eq i32 %4, 0
  br i1 %5, label %.thread16, label %6

6:                                                ; preds = %3
  %7 = and i32 %4, 128
  %.not = icmp eq i32 %7, 0
  br i1 %.not, label %.thread, label %8

8:                                                ; preds = %6
  %9 = tail call ptr @ossl_quic_obj_get0_handshake_layer(ptr noundef nonnull %0) #14
  %10 = icmp eq ptr %9, null
  br i1 %10, label %.thread, label %.thread16

.thread16:                                        ; preds = %3, %8
  %11 = phi ptr [ %9, %8 ], [ %0, %3 ]
  %12 = tail call i32 @ssl3_clear(ptr noundef nonnull %0) #14
  %.not15 = icmp eq i32 %12, 0
  br i1 %.not15, label %.thread, label %.thread.sink.split

.thread.sink.split:                               ; preds = %.thread16
  %13 = getelementptr inbounds nuw i8, ptr %0, i64 24
  %14 = load ptr, ptr %13, align 8, !tbaa !3
  %15 = load i32, ptr %14, align 8, !tbaa !74
  %16 = icmp eq i32 %15, 65536
  %17 = getelementptr inbounds nuw i8, ptr %11, i64 72
  %. = select i1 %16, i32 772, i32 %15
  store i32 %., ptr %17, align 8, !tbaa !75
  br label %.thread

.thread:                                          ; preds = %.thread.sink.split, %6, %1, %.thread16, %8
  %.0 = phi i32 [ 0, %8 ], [ 0, %.thread16 ], [ 0, %1 ], [ 0, %6 ], [ 1, %.thread.sink.split ]
  ret i32 %.0
}